target datalayout = "e-m:e-p270:32:32-p271:32:32-p272:64:64-i64:64-i128:128-f80:128-n8:16:32:64-S128"
target triple = "x86_64-unknown-linux-gnu"

%class.btVector3 = type { [4 x float] }
%struct.btDbvtNode = type { %struct.btDbvtAabbMm, ptr, %union.anon.4 }
%struct.btDbvtAabbMm = type { %class.btVector3, %class.btVector3 }
%union.anon.4 = type { [2 x ptr] }

; Function Attrs: mustprogress nounwind uwtable
define linkonce_odr dso_local noundef zeroext i1 @_ZNK10btDbvtNode6isleafEv(ptr noundef nonnull align 8 dereferenceable(56) %this) #1 comdat align 2 {
entry:
  %this.addr = alloca ptr, align 8
  store ptr %this, ptr %this.addr, align 8
  %this1 = load ptr, ptr %this.addr, align 8
  %0 = getelementptr inbounds %struct.btDbvtNode, ptr %this1, i32 0, i32 2
  %arrayidx = getelementptr inbounds [2 x ptr], ptr %0, i64 0, i64 1
  %1 = load ptr, ptr %arrayidx, align 8
  %cmp = icmp eq ptr %1, null
  ret i1 %cmp
}

; Function Attrs: mustprogress nounwind uwtable
define linkonce_odr dso_local noundef nonnull align 4 dereferenceable(4) ptr @_Z5btMaxIiERKT_S2_S2_(ptr noundef nonnull align 4 dereferenceable(4) %a, ptr noundef nonnull align 4 dereferenceable(4) %b) #1 comdat {
entry:
  %a.addr = alloca ptr, align 8
  %b.addr = alloca ptr, align 8
  store ptr %a, ptr %a.addr, align 8
  store ptr %b, ptr %b.addr, align 8
  %0 = load ptr, ptr %a.addr, align 8
  %1 = load i32, ptr %0, align 4
  %2 = load ptr, ptr %b.addr, align 8
  %3 = load i32, ptr %2, align 4
  %cmp = icmp sgt i32 %1, %3
  br i1 %cmp, label %cond.true, label %cond.false

cond.true:                                        ; preds = %entry
  %4 = load ptr, ptr %a.addr, align 8
  br label %cond.end

cond.false:                                       ; preds = %entry
  %5 = load ptr, ptr %b.addr, align 8
  br label %cond.end

cond.end:                                         ; preds = %cond.false, %cond.true
  %cond-lvalue = phi ptr [ %4, %cond.true ], [ %5, %cond.false ]
  ret ptr %cond-lvalue
}

; Function Attrs: mustprogress nounwind uwtable
define linkonce_odr dso_local noundef zeroext i1 @_ZNK10btDbvtNode10isinternalEv(ptr noundef nonnull align 8 dereferenceable(56) %this) #1 comdat align 2 {
entry:
  %this.addr = alloca ptr, align 8
  store ptr %this, ptr %this.addr, align 8
  %this1 = load ptr, ptr %this.addr, align 8
  %call = call noundef zeroext i1 @_ZNK10btDbvtNode6isleafEv(ptr noundef nonnull align 8 dereferenceable(56) %this1)
  %lnot = xor i1 %call, true
  ret i1 %lnot
}

; Function Attrs: mustprogress uwtable
define internal void @_ZL11getmaxdepthPK10btDbvtNodeiRi(ptr noundef %node, i32 noundef %depth, ptr noundef nonnull align 4 dereferenceable(4) %maxdepth) #2 {
entry:
  %node.addr = alloca ptr, align 8
  %depth.addr = alloca i32, align 4
  %maxdepth.addr = alloca ptr, align 8
  store ptr %node, ptr %node.addr, align 8
  store i32 %depth, ptr %depth.addr, align 4
  store ptr %maxdepth, ptr %maxdepth.addr, align 8
  %0 = load ptr, ptr %node.addr, align 8
  %call = call noundef zeroext i1 @_ZNK10btDbvtNode10isinternalEv(ptr noundef nonnull align 8 dereferenceable(56) %0)
  br i1 %call, label %if.then, label %if.else

if.then:                                          ; preds = %entry
  %1 = load ptr, ptr %node.addr, align 8
  %2 = getelementptr inbounds %struct.btDbvtNode, ptr %1, i32 0, i32 2
  %arrayidx = getelementptr inbounds [2 x ptr], ptr %2, i64 0, i64 0
  %3 = load ptr, ptr %arrayidx, align 8
  %4 = load i32, ptr %depth.addr, align 4
  %add = add nsw i32 %4, 1
  %5 = load ptr, ptr %maxdepth.addr, align 8
  call void @_ZL11getmaxdepthPK10btDbvtNodeiRi(ptr noundef %3, i32 noundef %add, ptr noundef nonnull align 4 dereferenceable(4) %5)
  %6 = load ptr, ptr %node.addr, align 8
  %7 = getelementptr inbounds %struct.btDbvtNode, ptr %6, i32 0, i32 2
  %arrayidx1 = getelementptr inbounds [2 x ptr], ptr %7, i64 0, i64 1
  %8 = load ptr, ptr %arrayidx1, align 8
  %9 = load i32, ptr %depth.addr, align 4
  %add2 = add nsw i32 %9, 1
  %10 = load ptr, ptr %maxdepth.addr, align 8
  call void @_ZL11getmaxdepthPK10btDbvtNodeiRi(ptr noundef %8, i32 noundef %add2, ptr noundef nonnull align 4 dereferenceable(4) %10)
  br label %if.end

if.else:                                          ; preds = %entry
  %11 = load ptr, ptr %maxdepth.addr, align 8
  %call3 = call noundef nonnull align 4 dereferenceable(4) ptr @_Z5btMaxIiERKT_S2_S2_(ptr noundef nonnull align 4 dereferenceable(4) %11, ptr noundef nonnull align 4 dereferenceable(4) %depth.addr)
  %12 = load i32, ptr %call3, align 4
  %13 = load ptr, ptr %maxdepth.addr, align 8
  store i32 %12, ptr %13, align 4
  br label %if.end

if.end:                                           ; preds = %if.else, %if.then
  ret void
}