; Function Attrs: mustprogress nofree nosync nounwind memory(readwrite, inaccessiblemem: none) uwtable
define internal fastcc void @_ZL11getmaxdepthPK10btDbvtNodeiRi(ptr nocapture noundef readonly %node, i32 noundef %depth, ptr nocapture noundef nonnull align 4 dereferenceable(4) %maxdepth) unnamed_addr #7 {
entry:
  %arrayidx.i.i11 = getelementptr inbounds i8, ptr %node, i64 48
  %0 = load ptr, ptr %arrayidx.i.i11, align 8
  %cmp.i.i.not12 = icmp eq ptr %0, null
  br i1 %cmp.i.i.not12, label %if.else, label %if.then

if.then:                                          ; preds = %entry, %if.then
  %arrayidx.i.i15 = phi ptr [ %arrayidx.i.i, %if.then ], [ %arrayidx.i.i11, %entry ]
  %depth.tr14 = phi i32 [ %add, %if.then ], [ %depth, %entry ]
  %node.tr13 = phi ptr [ %3, %if.then ], [ %node, %entry ]
  %1 = getelementptr inbounds i8, ptr %node.tr13, i64 40
  %2 = load ptr, ptr %1, align 8
  %add = add nsw i32 %depth.tr14, 1
  tail call fastcc void @_ZL11getmaxdepthPK10btDbvtNodeiRi(ptr noundef %2, i32 noundef %add, ptr noundef nonnull align 4 dereferenceable(4) %maxdepth)
  %3 = load ptr, ptr %arrayidx.i.i15, align 8
  %arrayidx.i.i = getelementptr inbounds i8, ptr %3, i64 48
  %4 = load ptr, ptr %arrayidx.i.i, align 8
  %cmp.i.i.not = icmp eq ptr %4, null
  br i1 %cmp.i.i.not, label %if.else, label %if.then

if.else:                                          ; preds = %if.then, %entry
  %depth.tr.lcssa = phi i32 [ %depth, %entry ], [ %add, %if.then ]
  %5 = load i32, ptr %maxdepth, align 4
  %.sroa.speculated = tail call i32 @llvm.smax.i32(i32 %5, i32 %depth.tr.lcssa)
  store i32 %.sroa.speculated, ptr %maxdepth, align 4
  ret void
}